target datalayout = "e-m:e-p270:32:32-p271:32:32-p272:64:64-i64:64-i128:128-f80:128-n8:16:32:64-S128"
target triple = "x86_64-pc-linux-gnu"

%struct.uv__allocator_t = type { ptr, ptr, ptr, ptr }
%struct.uv_buf_t = type { ptr, i64 }
%struct.uv_fs_s = type { ptr, i32, [6 x ptr], i32, ptr, ptr, i64, ptr, ptr, %struct.uv_stat_t, ptr, i32, i32, i32, i32, ptr, i64, i32, i32, double, double, %struct.uv__work, [4 x %struct.uv_buf_t] }
%struct.uv_stat_t = type { i64, i64, i64, i64, i64, i64, i64, i64, i64, i64, i64, i64, %struct.uv_timespec_t, %struct.uv_timespec_t, %struct.uv_timespec_t, %struct.uv_timespec_t }
%struct.uv_timespec_t = type { i64, i64 }
%struct.uv__work = type { ptr, ptr, ptr, [2 x ptr] }
%struct.uv_dirent_s = type { ptr, i32 }
%struct.uv_dir_s = type { ptr, i64, [4 x ptr], ptr }

@uv__allocator = internal global %struct.uv__allocator_t { ptr @malloc, ptr @realloc, ptr @calloc, ptr @free }, align 8

; Function Attrs: nounwind uwtable
define dso_local void @uv__free(ptr noundef %0) #0 {
  %2 = alloca ptr, align 8
  %3 = alloca i32, align 4
  store ptr %0, ptr %2, align 8, !tbaa !14
  call void @llvm.lifetime.start.p0(i64 4, ptr %3) #13
  %4 = call ptr @__errno_location() #15
  %5 = load i32, ptr %4, align 4, !tbaa !15
  store i32 %5, ptr %3, align 4, !tbaa !15
  %6 = load ptr, ptr getelementptr inbounds nuw (%struct.uv__allocator_t, ptr @uv__allocator, i32 0, i32 3), align 8, !tbaa !17
  %7 = load ptr, ptr %2, align 8, !tbaa !14
  call void %6(ptr noundef %7)
  %8 = load i32, ptr %3, align 4, !tbaa !15
  %9 = call ptr @__errno_location() #15
  store i32 %8, ptr %9, align 4, !tbaa !15
  call void @llvm.lifetime.end.p0(i64 4, ptr %3) #13
  ret void
}

; Function Attrs: nounwind uwtable
define dso_local void @uv__fs_readdir_cleanup(ptr noundef %0) #0 {
  %2 = alloca ptr, align 8
  %3 = alloca ptr, align 8
  %4 = alloca ptr, align 8
  %5 = alloca i32, align 4
  %6 = alloca i32, align 4
  store ptr %0, ptr %2, align 8, !tbaa !93
  call void @llvm.lifetime.start.p0(i64 8, ptr %3) #13
  call void @llvm.lifetime.start.p0(i64 8, ptr %4) #13
  call void @llvm.lifetime.start.p0(i64 4, ptr %5) #13
  %7 = load ptr, ptr %2, align 8, !tbaa !93
  %8 = getelementptr inbounds nuw %struct.uv_fs_s, ptr %7, i32 0, i32 7
  %9 = load ptr, ptr %8, align 8, !tbaa !95
  %10 = icmp eq ptr %9, null
  br i1 %10, label %11, label %12

11:                                               ; preds = %1
  store i32 1, ptr %6, align 4
  br label %48

12:                                               ; preds = %1
  %13 = load ptr, ptr %2, align 8, !tbaa !93
  %14 = getelementptr inbounds nuw %struct.uv_fs_s, ptr %13, i32 0, i32 7
  %15 = load ptr, ptr %14, align 8, !tbaa !95
  store ptr %15, ptr %3, align 8, !tbaa !114
  %16 = load ptr, ptr %3, align 8, !tbaa !114
  %17 = getelementptr inbounds nuw %struct.uv_dir_s, ptr %16, i32 0, i32 0
  %18 = load ptr, ptr %17, align 8, !tbaa !116
  store ptr %18, ptr %4, align 8, !tbaa !107
  %19 = load ptr, ptr %2, align 8, !tbaa !93
  %20 = getelementptr inbounds nuw %struct.uv_fs_s, ptr %19, i32 0, i32 7
  store ptr null, ptr %20, align 8, !tbaa !95
  %21 = load ptr, ptr %4, align 8, !tbaa !107
  %22 = icmp eq ptr %21, null
  br i1 %22, label %23, label %24

23:                                               ; preds = %12
  store i32 1, ptr %6, align 4
  br label %48

24:                                               ; preds = %12
  store i32 0, ptr %5, align 4, !tbaa !15
  br label %25

25:                                               ; preds = %44, %24
  %26 = load i32, ptr %5, align 4, !tbaa !15
  %27 = sext i32 %26 to i64
  %28 = load ptr, ptr %2, align 8, !tbaa !93
  %29 = getelementptr inbounds nuw %struct.uv_fs_s, ptr %28, i32 0, i32 6
  %30 = load i64, ptr %29, align 8, !tbaa !103
  %31 = icmp slt i64 %27, %30
  br i1 %31, label %32, label %47

32:                                               ; preds = %25
  %33 = load ptr, ptr %4, align 8, !tbaa !107
  %34 = load i32, ptr %5, align 4, !tbaa !15
  %35 = sext i32 %34 to i64
  %36 = getelementptr inbounds %struct.uv_dirent_s, ptr %33, i64 %35
  %37 = getelementptr inbounds nuw %struct.uv_dirent_s, ptr %36, i32 0, i32 0
  %38 = load ptr, ptr %37, align 8, !tbaa !109
  call void @uv__free(ptr noundef %38)
  %39 = load ptr, ptr %4, align 8, !tbaa !107
  %40 = load i32, ptr %5, align 4, !tbaa !15
  %41 = sext i32 %40 to i64
  %42 = getelementptr inbounds %struct.uv_dirent_s, ptr %39, i64 %41
  %43 = getelementptr inbounds nuw %struct.uv_dirent_s, ptr %42, i32 0, i32 0
  store ptr null, ptr %43, align 8, !tbaa !109
  br label %44

44:                                               ; preds = %32
  %45 = load i32, ptr %5, align 4, !tbaa !15
  %46 = add nsw i32 %45, 1
  store i32 %46, ptr %5, align 4, !tbaa !15
  br label %25, !llvm.loop !119

47:                                               ; preds = %25
  store i32 0, ptr %6, align 4
  br label %48

48:                                               ; preds = %47, %23, %11
  call void @llvm.lifetime.end.p0(i64 4, ptr %5) #13
  call void @llvm.lifetime.end.p0(i64 8, ptr %4) #13
  call void @llvm.lifetime.end.p0(i64 8, ptr %3) #13
  %49 = load i32, ptr %6, align 4
  switch i32 %49, label %51 [
    i32 0, label %50
    i32 1, label %50
  ]

50:                                               ; preds = %48, %48
  ret void

51:                                               ; preds = %48
  unreachable
}